; Function Attrs: mustprogress nounwind uwtable
define dso_local void @_ZNK4llvm9DbgMarker5printERNS_11raw_ostreamEb(ptr noundef nonnull align 8 dereferenceable(24) %0, ptr noundef nonnull align 8 dereferenceable(48) %1, i1 noundef zeroext %2) local_unnamed_addr #1 align 2 {
  %4 = alloca %"class.llvm::ModuleSlotTracker", align 8
  %5 = tail call noundef ptr @_ZNK4llvm9DbgMarker9getParentEv(ptr noundef nonnull align 8 dereferenceable(24) %0) #25
  %.not.i = icmp eq ptr %5, null
  br i1 %.not.i, label %_ZL16getModuleFromDPIPKN4llvm9DbgMarkerE.exit, label %6

6:                                                ; preds = %3
  %7 = tail call noundef ptr @_ZNK4llvm9DbgMarker9getParentEv(ptr noundef nonnull align 8 dereferenceable(24) %0) #25
  %8 = getelementptr inbounds nuw i8, ptr %7, i64 72
  %9 = load ptr, ptr %8, align 8
  %.not4.i = icmp eq ptr %9, null
  br i1 %.not4.i, label %_ZL16getModuleFromDPIPKN4llvm9DbgMarkerE.exit, label %10

10:                                               ; preds = %6
  %11 = getelementptr inbounds nuw i8, ptr %9, i64 40
  %12 = load ptr, ptr %11, align 8
  br label %_ZL16getModuleFromDPIPKN4llvm9DbgMarkerE.exit

_ZL16getModuleFromDPIPKN4llvm9DbgMarkerE.exit:    ; preds = %3, %6, %10
  %13 = phi ptr [ %12, %10 ], [ null, %6 ], [ null, %3 ]
  call void @_ZN4llvm17ModuleSlotTrackerC1EPKNS_6ModuleEb(ptr noundef nonnull align 8 dereferenceable(112) %4, ptr noundef %13, i1 noundef zeroext true) #25
  call void @_ZNK4llvm9DbgMarker5printERNS_11raw_ostreamERNS_17ModuleSlotTrackerEb(ptr noundef nonnull align 8 dereferenceable(24) %0, ptr noundef nonnull align 8 dereferenceable(48) %1, ptr noundef nonnull align 8 dereferenceable(112) %4, i1 noundef zeroext %2)
  call void @_ZN4llvm17ModuleSlotTrackerD1Ev(ptr noundef nonnull align 8 dereferenceable(112) %4) #25
  ret void
}